; Function Attrs: mustprogress uwtable
define hidden noundef i32 @_ZN1q5queue11get_new_genERNS_7bindingEf(ptr noundef nonnull align 8 dereferenceable(912) %this, ptr nocapture noundef nonnull readonly align 8 dereferenceable(48) %f, float noundef %cost) local_unnamed_addr #3 align 2 {
entry:
  tail call void @_ZN1q5queue10set_valuesERNS_7bindingEf(ptr noundef nonnull align 8 dereferenceable(912) %this, ptr noundef nonnull align 8 dereferenceable(48) %f, float noundef %cost)
  %m_new_gen_function = getelementptr inbounds i8, ptr %this, i64 56
  %0 = load ptr, ptr %m_new_gen_function, align 8
  %m_vals = getelementptr inbounds i8, ptr %this, i64 880
  %1 = load ptr, ptr %m_vals, align 8
  %cmp.i = icmp eq ptr %1, null
  br i1 %cmp.i, label %_ZNK6vectorIfLb0EjE4sizeEv.exit, label %if.end.i

if.end.i:                                         ; preds = %entry
  %arrayidx.i = getelementptr inbounds i8, ptr %1, i64 -4
  %2 = load i32, ptr %arrayidx.i, align 4
  br label %_ZNK6vectorIfLb0EjE4sizeEv.exit

_ZNK6vectorIfLb0EjE4sizeEv.exit:                  ; preds = %entry, %if.end.i
  %retval.0.i = phi i32 [ %2, %if.end.i ], [ 0, %entry ]
  %m_evaluator = getelementptr inbounds i8, ptr %this, i64 184
  %call5 = tail call noundef float @_ZN14cost_evaluatorclEP4exprjPKf(ptr noundef nonnull align 8 dereferenceable(40) %m_evaluator, ptr noundef %0, i32 noundef %retval.0.i, ptr noundef %1)
  %m_max_generation = getelementptr inbounds i8, ptr %f, i64 32
  %3 = load i32, ptr %m_max_generation, align 8
  %add = add i32 %3, 1
  %conv = fptoui float %call5 to i32
  %.sroa.speculated = tail call i32 @llvm.umax.i32(i32 %add, i32 %conv)
  ret i32 %.sroa.speculated
}